target datalayout = "e-m:e-p270:32:32-p271:32:32-p272:64:64-i64:64-i128:128-f80:128-n8:16:32:64-S128"
target triple = "x86_64-pc-linux-gnu"

%struct.LZ4IO_prefs_s = type { i32, i32, i32, i32, i64, i32, i32, i32, i32, i32, i32, i32, ptr, i32, i32 }
%struct.dRess_t = type { ptr, i64, ptr, i64, ptr, ptr, ptr, i64 }

@g_displayLevel = internal global i32 0, align 4
@stderr = external global ptr, align 8
@.str = private unnamed_addr constant [12 x i8] c"Error %i : \00", align 1
@.str.2 = private unnamed_addr constant [3 x i8] c" \0A\00", align 1
@.str.77 = private unnamed_addr constant [47 x i8] c"Dictionary error : could not create dictionary\00", align 1
@.str.81 = private unnamed_addr constant [37 x i8] c"Allocation error : not enough memory\00", align 1
@.str.83 = private unnamed_addr constant [31 x i8] c"Can't create LZ4F context : %s\00", align 1

; Function Attrs: nounwind uwtable
define internal void @LZ4IO_loadDDict(ptr noundef %0, ptr noundef %1) #0 {
  %3 = alloca ptr, align 8
  %4 = alloca ptr, align 8
  store ptr %0, ptr %3, align 8, !tbaa !41
  store ptr %1, ptr %4, align 8, !tbaa !4
  %5 = load ptr, ptr %4, align 8, !tbaa !4
  %6 = getelementptr inbounds nuw %struct.LZ4IO_prefs_s, ptr %5, i32 0, i32 10
  %7 = load i32, ptr %6, align 4, !tbaa !26
  %8 = icmp ne i32 %7, 0
  br i1 %8, label %14, label %9

9:                                                ; preds = %2
  %10 = load ptr, ptr %3, align 8, !tbaa !41
  %11 = getelementptr inbounds nuw %struct.dRess_t, ptr %10, i32 0, i32 6
  store ptr null, ptr %11, align 8, !tbaa !141
  %12 = load ptr, ptr %3, align 8, !tbaa !41
  %13 = getelementptr inbounds nuw %struct.dRess_t, ptr %12, i32 0, i32 7
  store i64 0, ptr %13, align 8, !tbaa !185
  br label %65

14:                                               ; preds = %2
  %15 = load ptr, ptr %3, align 8, !tbaa !41
  %16 = getelementptr inbounds nuw %struct.dRess_t, ptr %15, i32 0, i32 7
  %17 = load ptr, ptr %4, align 8, !tbaa !4
  %18 = getelementptr inbounds nuw %struct.LZ4IO_prefs_s, ptr %17, i32 0, i32 12
  %19 = load ptr, ptr %18, align 8, !tbaa !28
  %20 = call ptr @LZ4IO_createDict(ptr noundef %16, ptr noundef %19)
  %21 = load ptr, ptr %3, align 8, !tbaa !41
  %22 = getelementptr inbounds nuw %struct.dRess_t, ptr %21, i32 0, i32 6
  store ptr %20, ptr %22, align 8, !tbaa !141
  %23 = load ptr, ptr %3, align 8, !tbaa !41
  %24 = getelementptr inbounds nuw %struct.dRess_t, ptr %23, i32 0, i32 6
  %25 = load ptr, ptr %24, align 8, !tbaa !141
  %26 = icmp ne ptr %25, null
  br i1 %26, label %65, label %27

27:                                               ; preds = %14
  %28 = load i32, ptr @g_displayLevel, align 4, !tbaa !9
  %29 = icmp sge i32 %28, 1
  br i1 %29, label %30, label %39

30:                                               ; preds = %27
  %31 = load ptr, ptr @stderr, align 8, !tbaa !11
  %32 = call i32 (ptr, ptr, ...) @fprintf(ptr noundef %31, ptr noundef @.str, i32 noundef 25) #13
  %33 = load i32, ptr @g_displayLevel, align 4, !tbaa !9
  %34 = icmp sge i32 %33, 4
  br i1 %34, label %35, label %38

35:                                               ; preds = %30
  %36 = load ptr, ptr @stderr, align 8, !tbaa !11
  %37 = call i32 @fflush(ptr noundef %36)
  br label %38

38:                                               ; preds = %35, %30
  br label %39

39:                                               ; preds = %38, %27
  %40 = load i32, ptr @g_displayLevel, align 4, !tbaa !9
  %41 = icmp sge i32 %40, 1
  br i1 %41, label %42, label %51

42:                                               ; preds = %39
  %43 = load ptr, ptr @stderr, align 8, !tbaa !11
  %44 = call i32 (ptr, ptr, ...) @fprintf(ptr noundef %43, ptr noundef @.str.77) #13
  %45 = load i32, ptr @g_displayLevel, align 4, !tbaa !9
  %46 = icmp sge i32 %45, 4
  br i1 %46, label %47, label %50

47:                                               ; preds = %42
  %48 = load ptr, ptr @stderr, align 8, !tbaa !11
  %49 = call i32 @fflush(ptr noundef %48)
  br label %50

50:                                               ; preds = %47, %42
  br label %51

51:                                               ; preds = %50, %39
  %52 = load i32, ptr @g_displayLevel, align 4, !tbaa !9
  %53 = icmp sge i32 %52, 1
  br i1 %53, label %54, label %63

54:                                               ; preds = %51
  %55 = load ptr, ptr @stderr, align 8, !tbaa !11
  %56 = call i32 (ptr, ptr, ...) @fprintf(ptr noundef %55, ptr noundef @.str.2) #13
  %57 = load i32, ptr @g_displayLevel, align 4, !tbaa !9
  %58 = icmp sge i32 %57, 4
  br i1 %58, label %59, label %62

59:                                               ; preds = %54
  %60 = load ptr, ptr @stderr, align 8, !tbaa !11
  %61 = call i32 @fflush(ptr noundef %60)
  br label %62

62:                                               ; preds = %59, %54
  br label %63

63:                                               ; preds = %62, %51
  %64 = call i32 @fflush(ptr noundef null)
  call void @exit(i32 noundef 25) #15
  unreachable

65:                                               ; preds = %9, %14
  ret void
}

; Function Attrs: nounwind uwtable
define internal void @LZ4IO_createDResources(ptr dead_on_unwind noalias writable sret(%struct.dRess_t) align 8 %0, ptr noundef %1) #0 {
  %3 = alloca ptr, align 8
  %4 = alloca i64, align 8
  store ptr %1, ptr %3, align 8, !tbaa !4
  call void @llvm.lifetime.start.p0(i64 8, ptr %4) #13
  %5 = getelementptr inbounds nuw %struct.dRess_t, ptr %0, i32 0, i32 5
  %6 = call i64 @LZ4F_createDecompressionContext(ptr noundef %5, i32 noundef 100)
  store i64 %6, ptr %4, align 8, !tbaa !32
  %7 = load i64, ptr %4, align 8, !tbaa !32
  %8 = call i32 @LZ4F_isError(i64 noundef %7)
  %9 = icmp ne i32 %8, 0
  br i1 %9, label %10, label %50

10:                                               ; preds = %2
  %11 = load i32, ptr @g_displayLevel, align 4, !tbaa !9
  %12 = icmp sge i32 %11, 1
  br i1 %12, label %13, label %22

13:                                               ; preds = %10
  %14 = load ptr, ptr @stderr, align 8, !tbaa !11
  %15 = call i32 (ptr, ptr, ...) @fprintf(ptr noundef %14, ptr noundef @.str, i32 noundef 60) #13
  %16 = load i32, ptr @g_displayLevel, align 4, !tbaa !9
  %17 = icmp sge i32 %16, 4
  br i1 %17, label %18, label %21

18:                                               ; preds = %13
  %19 = load ptr, ptr @stderr, align 8, !tbaa !11
  %20 = call i32 @fflush(ptr noundef %19)
  br label %21

21:                                               ; preds = %18, %13
  br label %22

22:                                               ; preds = %21, %10
  %23 = load i32, ptr @g_displayLevel, align 4, !tbaa !9
  %24 = icmp sge i32 %23, 1
  br i1 %24, label %25, label %36

25:                                               ; preds = %22
  %26 = load ptr, ptr @stderr, align 8, !tbaa !11
  %27 = load i64, ptr %4, align 8, !tbaa !32
  %28 = call ptr @LZ4F_getErrorName(i64 noundef %27)
  %29 = call i32 (ptr, ptr, ...) @fprintf(ptr noundef %26, ptr noundef @.str.83, ptr noundef %28) #13
  %30 = load i32, ptr @g_displayLevel, align 4, !tbaa !9
  %31 = icmp sge i32 %30, 4
  br i1 %31, label %32, label %35

32:                                               ; preds = %25
  %33 = load ptr, ptr @stderr, align 8, !tbaa !11
  %34 = call i32 @fflush(ptr noundef %33)
  br label %35

35:                                               ; preds = %32, %25
  br label %36

36:                                               ; preds = %35, %22
  %37 = load i32, ptr @g_displayLevel, align 4, !tbaa !9
  %38 = icmp sge i32 %37, 1
  br i1 %38, label %39, label %48

39:                                               ; preds = %36
  %40 = load ptr, ptr @stderr, align 8, !tbaa !11
  %41 = call i32 (ptr, ptr, ...) @fprintf(ptr noundef %40, ptr noundef @.str.2) #13
  %42 = load i32, ptr @g_displayLevel, align 4, !tbaa !9
  %43 = icmp sge i32 %42, 4
  br i1 %43, label %44, label %47

44:                                               ; preds = %39
  %45 = load ptr, ptr @stderr, align 8, !tbaa !11
  %46 = call i32 @fflush(ptr noundef %45)
  br label %47

47:                                               ; preds = %44, %39
  br label %48

48:                                               ; preds = %47, %36
  %49 = call i32 @fflush(ptr noundef null)
  call void @exit(i32 noundef 60) #15
  unreachable

50:                                               ; preds = %2
  %51 = getelementptr inbounds nuw %struct.dRess_t, ptr %0, i32 0, i32 1
  store i64 65536, ptr %51, align 8, !tbaa !133
  %52 = getelementptr inbounds nuw %struct.dRess_t, ptr %0, i32 0, i32 1
  %53 = load i64, ptr %52, align 8, !tbaa !133
  %54 = call noalias ptr @malloc(i64 noundef %53) #14
  %55 = getelementptr inbounds nuw %struct.dRess_t, ptr %0, i32 0, i32 0
  store ptr %54, ptr %55, align 8, !tbaa !136
  %56 = getelementptr inbounds nuw %struct.dRess_t, ptr %0, i32 0, i32 3
  store i64 65536, ptr %56, align 8, !tbaa !137
  %57 = getelementptr inbounds nuw %struct.dRess_t, ptr %0, i32 0, i32 3
  %58 = load i64, ptr %57, align 8, !tbaa !137
  %59 = call noalias ptr @malloc(i64 noundef %58) #14
  %60 = getelementptr inbounds nuw %struct.dRess_t, ptr %0, i32 0, i32 2
  store ptr %59, ptr %60, align 8, !tbaa !138
  %61 = getelementptr inbounds nuw %struct.dRess_t, ptr %0, i32 0, i32 0
  %62 = load ptr, ptr %61, align 8, !tbaa !136
  %63 = icmp ne ptr %62, null
  br i1 %63, label %64, label %68

64:                                               ; preds = %50
  %65 = getelementptr inbounds nuw %struct.dRess_t, ptr %0, i32 0, i32 2
  %66 = load ptr, ptr %65, align 8, !tbaa !138
  %67 = icmp ne ptr %66, null
  br i1 %67, label %106, label %68

68:                                               ; preds = %64, %50
  %69 = load i32, ptr @g_displayLevel, align 4, !tbaa !9
  %70 = icmp sge i32 %69, 1
  br i1 %70, label %71, label %80

71:                                               ; preds = %68
  %72 = load ptr, ptr @stderr, align 8, !tbaa !11
  %73 = call i32 (ptr, ptr, ...) @fprintf(ptr noundef %72, ptr noundef @.str, i32 noundef 61) #13
  %74 = load i32, ptr @g_displayLevel, align 4, !tbaa !9
  %75 = icmp sge i32 %74, 4
  br i1 %75, label %76, label %79

76:                                               ; preds = %71
  %77 = load ptr, ptr @stderr, align 8, !tbaa !11
  %78 = call i32 @fflush(ptr noundef %77)
  br label %79

79:                                               ; preds = %76, %71
  br label %80

80:                                               ; preds = %79, %68
  %81 = load i32, ptr @g_displayLevel, align 4, !tbaa !9
  %82 = icmp sge i32 %81, 1
  br i1 %82, label %83, label %92

83:                                               ; preds = %80
  %84 = load ptr, ptr @stderr, align 8, !tbaa !11
  %85 = call i32 (ptr, ptr, ...) @fprintf(ptr noundef %84, ptr noundef @.str.81) #13
  %86 = load i32, ptr @g_displayLevel, align 4, !tbaa !9
  %87 = icmp sge i32 %86, 4
  br i1 %87, label %88, label %91

88:                                               ; preds = %83
  %89 = load ptr, ptr @stderr, align 8, !tbaa !11
  %90 = call i32 @fflush(ptr noundef %89)
  br label %91

91:                                               ; preds = %88, %83
  br label %92

92:                                               ; preds = %91, %80
  %93 = load i32, ptr @g_displayLevel, align 4, !tbaa !9
  %94 = icmp sge i32 %93, 1
  br i1 %94, label %95, label %104

95:                                               ; preds = %92
  %96 = load ptr, ptr @stderr, align 8, !tbaa !11
  %97 = call i32 (ptr, ptr, ...) @fprintf(ptr noundef %96, ptr noundef @.str.2) #13
  %98 = load i32, ptr @g_displayLevel, align 4, !tbaa !9
  %99 = icmp sge i32 %98, 4
  br i1 %99, label %100, label %103

100:                                              ; preds = %95
  %101 = load ptr, ptr @stderr, align 8, !tbaa !11
  %102 = call i32 @fflush(ptr noundef %101)
  br label %103

103:                                              ; preds = %100, %95
  br label %104

104:                                              ; preds = %103, %92
  %105 = call i32 @fflush(ptr noundef null)
  call void @exit(i32 noundef 61) #15
  unreachable

106:                                              ; preds = %64
  %107 = load ptr, ptr %3, align 8, !tbaa !4
  call void @LZ4IO_loadDDict(ptr noundef %0, ptr noundef %107)
  %108 = getelementptr inbounds nuw %struct.dRess_t, ptr %0, i32 0, i32 4
  store ptr null, ptr %108, align 8, !tbaa !139
  call void @llvm.lifetime.end.p0(i64 8, ptr %4) #13
  ret void
}