; Function Attrs: nounwind uwtable
define internal fastcc void @LZ4IO_createDResources(ptr dead_on_unwind noalias nonnull writable align 8 %0, ptr noundef readonly captures(none) %1) unnamed_addr #11 {
  %3 = getelementptr inbounds nuw i8, ptr %0, i64 40
  %4 = tail call i64 @LZ4F_createDecompressionContext(ptr noundef nonnull %3, i32 noundef 100) #24
  %5 = tail call i32 @LZ4F_isError(i64 noundef %4) #24
  %.not = icmp eq i32 %5, 0
  br i1 %.not, label %40, label %6

6:                                                ; preds = %2
  %7 = load i32, ptr @g_displayLevel, align 4, !tbaa !4
  %8 = icmp sgt i32 %7, 0
  br i1 %8, label %9, label %.thread5

9:                                                ; preds = %6
  %10 = load ptr, ptr @stderr, align 8, !tbaa !8
  %11 = tail call i32 (ptr, ptr, ...) @fprintf(ptr noundef %10, ptr noundef nonnull @.str, i32 noundef 60) #26
  %12 = load i32, ptr @g_displayLevel, align 4, !tbaa !4
  %13 = icmp sgt i32 %12, 3
  br i1 %13, label %14, label %17

14:                                               ; preds = %9
  %15 = load ptr, ptr @stderr, align 8, !tbaa !8
  %16 = tail call i32 @fflush(ptr noundef %15)
  %.pr = load i32, ptr @g_displayLevel, align 4, !tbaa !4
  br label %17

17:                                               ; preds = %9, %14
  %18 = phi i32 [ %12, %9 ], [ %.pr, %14 ]
  %19 = icmp sgt i32 %18, 0
  br i1 %19, label %20, label %.thread5

20:                                               ; preds = %17
  %21 = load ptr, ptr @stderr, align 8, !tbaa !8
  %22 = tail call ptr @LZ4F_getErrorName(i64 noundef %4) #24
  %23 = tail call i32 (ptr, ptr, ...) @fprintf(ptr noundef %21, ptr noundef nonnull @.str.83, ptr noundef %22) #26
  %24 = load i32, ptr @g_displayLevel, align 4, !tbaa !4
  %25 = icmp sgt i32 %24, 3
  br i1 %25, label %26, label %thread-pre-split

26:                                               ; preds = %20
  %27 = load ptr, ptr @stderr, align 8, !tbaa !8
  %28 = tail call i32 @fflush(ptr noundef %27)
  %.pr4.pre = load i32, ptr @g_displayLevel, align 4, !tbaa !4
  br label %thread-pre-split

thread-pre-split:                                 ; preds = %26, %20
  %29 = phi i32 [ %24, %20 ], [ %.pr4.pre, %26 ]
  %30 = icmp sgt i32 %29, 0
  br i1 %30, label %31, label %.thread5

31:                                               ; preds = %thread-pre-split
  %32 = load ptr, ptr @stderr, align 8, !tbaa !8
  %33 = tail call i64 @fwrite(ptr nonnull @.str.2, i64 2, i64 1, ptr %32) #27
  %34 = load i32, ptr @g_displayLevel, align 4, !tbaa !4
  %35 = icmp sgt i32 %34, 3
  br i1 %35, label %36, label %.thread5

36:                                               ; preds = %31
  %37 = load ptr, ptr @stderr, align 8, !tbaa !8
  %38 = tail call i32 @fflush(ptr noundef %37)
  br label %.thread5

.thread5:                                         ; preds = %17, %6, %31, %36, %thread-pre-split
  %39 = tail call i32 @fflush(ptr noundef null)
  tail call void @exit(i32 noundef 60) #28
  unreachable

40:                                               ; preds = %2
  %41 = getelementptr inbounds nuw i8, ptr %0, i64 8
  store i64 65536, ptr %41, align 8, !tbaa !123
  %42 = tail call noalias dereferenceable_or_null(65536) ptr @malloc(i64 noundef 65536) #25
  store ptr %42, ptr %0, align 8, !tbaa !126
  %43 = getelementptr inbounds nuw i8, ptr %0, i64 24
  store i64 65536, ptr %43, align 8, !tbaa !127
  %44 = tail call noalias dereferenceable_or_null(65536) ptr @malloc(i64 noundef 65536) #25
  %45 = getelementptr inbounds nuw i8, ptr %0, i64 16
  store ptr %44, ptr %45, align 8, !tbaa !128
  %46 = icmp ne ptr %42, null
  %47 = icmp ne ptr %44, null
  %or.cond = and i1 %46, %47
  br i1 %or.cond, label %81, label %48

48:                                               ; preds = %40
  %49 = load i32, ptr @g_displayLevel, align 4, !tbaa !4
  %50 = icmp sgt i32 %49, 0
  br i1 %50, label %51, label %.thread10

51:                                               ; preds = %48
  %52 = load ptr, ptr @stderr, align 8, !tbaa !8
  %53 = tail call i32 (ptr, ptr, ...) @fprintf(ptr noundef %52, ptr noundef nonnull @.str, i32 noundef 61) #26
  %54 = load i32, ptr @g_displayLevel, align 4, !tbaa !4
  %55 = icmp sgt i32 %54, 3
  br i1 %55, label %56, label %59

56:                                               ; preds = %51
  %57 = load ptr, ptr @stderr, align 8, !tbaa !8
  %58 = tail call i32 @fflush(ptr noundef %57)
  %.pr6 = load i32, ptr @g_displayLevel, align 4, !tbaa !4
  br label %59

59:                                               ; preds = %51, %56
  %60 = phi i32 [ %54, %51 ], [ %.pr6, %56 ]
  %61 = icmp sgt i32 %60, 0
  br i1 %61, label %62, label %.thread10

62:                                               ; preds = %59
  %63 = load ptr, ptr @stderr, align 8, !tbaa !8
  %64 = tail call i64 @fwrite(ptr nonnull @.str.81, i64 36, i64 1, ptr %63) #27
  %65 = load i32, ptr @g_displayLevel, align 4, !tbaa !4
  %66 = icmp sgt i32 %65, 3
  br i1 %66, label %67, label %thread-pre-split8

67:                                               ; preds = %62
  %68 = load ptr, ptr @stderr, align 8, !tbaa !8
  %69 = tail call i32 @fflush(ptr noundef %68)
  %.pr9.pre = load i32, ptr @g_displayLevel, align 4, !tbaa !4
  br label %thread-pre-split8

thread-pre-split8:                                ; preds = %67, %62
  %70 = phi i32 [ %65, %62 ], [ %.pr9.pre, %67 ]
  %71 = icmp sgt i32 %70, 0
  br i1 %71, label %72, label %.thread10

72:                                               ; preds = %thread-pre-split8
  %73 = load ptr, ptr @stderr, align 8, !tbaa !8
  %74 = tail call i64 @fwrite(ptr nonnull @.str.2, i64 2, i64 1, ptr %73) #27
  %75 = load i32, ptr @g_displayLevel, align 4, !tbaa !4
  %76 = icmp sgt i32 %75, 3
  br i1 %76, label %77, label %.thread10

77:                                               ; preds = %72
  %78 = load ptr, ptr @stderr, align 8, !tbaa !8
  %79 = tail call i32 @fflush(ptr noundef %78)
  br label %.thread10

.thread10:                                        ; preds = %59, %48, %72, %77, %thread-pre-split8
  %80 = tail call i32 @fflush(ptr noundef null)
  tail call void @exit(i32 noundef 61) #28
  unreachable

81:                                               ; preds = %40
  %82 = getelementptr inbounds nuw i8, ptr %1, i64 44
  %83 = load i32, ptr %82, align 4, !tbaa !24
  %.not.i = icmp eq i32 %83, 0
  %84 = getelementptr inbounds nuw i8, ptr %0, i64 56
  br i1 %.not.i, label %85, label %86

85:                                               ; preds = %81
  store i64 0, ptr %84, align 8, !tbaa !129
  br label %LZ4IO_loadDDict.exit

86:                                               ; preds = %81
  %87 = getelementptr inbounds nuw i8, ptr %1, i64 56
  %88 = load ptr, ptr %87, align 8, !tbaa !26
  %89 = tail call fastcc ptr @LZ4IO_createDict(ptr noundef %84, ptr noundef %88)
  br label %LZ4IO_loadDDict.exit

LZ4IO_loadDDict.exit:                             ; preds = %85, %86
  %.sink.i = phi ptr [ null, %85 ], [ %89, %86 ]
  %90 = getelementptr inbounds nuw i8, ptr %0, i64 48
  store ptr %.sink.i, ptr %90, align 8, !tbaa !130
  %91 = getelementptr inbounds nuw i8, ptr %0, i64 32
  store ptr null, ptr %91, align 8, !tbaa !131
  ret void
}